; Function Attrs: mustprogress uwtable
define noundef i32 @_ZNK6icu_778Collator11getStrengthEv(ptr noundef nonnull align 8 dereferenceable(8) %0) unnamed_addr #5 align 2 {
  %2 = alloca i32, align 4
  call void @llvm.lifetime.start.p0(i64 4, ptr nonnull %2) #16
  store i32 0, ptr %2, align 4, !tbaa !6
  %3 = load ptr, ptr %0, align 8, !tbaa !3
  %4 = getelementptr inbounds nuw i8, ptr %3, i64 192
  %5 = load ptr, ptr %4, align 8
  %6 = call noundef i32 %5(ptr noundef nonnull align 8 dereferenceable(8) %0, i32 noundef 5, ptr noundef nonnull align 4 dereferenceable(4) %2)
  call void @llvm.lifetime.end.p0(i64 4, ptr nonnull %2) #16
  ret i32 %6
}